; ModuleID = 'source-C-CXX/42/1657.cpp'
source_filename = "source-C-CXX/42/1657.cpp"
target datalayout = "e-m:e-p270:32:32-p271:32:32-p272:64:64-i64:64-f80:128-n8:16:32:64-S128"
target triple = "x86_64-pc-linux-gnu"

%"class.std::ios_base::Init" = type { i8 }
%"class.std::basic_istream" = type { i32 (...)**, i64, %"class.std::basic_ios" }
%"class.std::basic_ios" = type { %"class.std::ios_base", %"class.std::basic_ostream"*, i8, i8, %"class.std::basic_streambuf"*, %"class.std::ctype"*, %"class.std::num_put"*, %"class.std::num_get"* }
%"class.std::ios_base" = type { i32 (...)**, i64, i64, i32, i32, i32, %"struct.std::ios_base::_Callback_list"*, %"struct.std::ios_base::_Words", [8 x %"struct.std::ios_base::_Words"], i32, %"struct.std::ios_base::_Words"*, %"class.std::locale" }
%"struct.std::ios_base::_Callback_list" = type { %"struct.std::ios_base::_Callback_list"*, void (i32, %"class.std::ios_base"*, i32)*, i32, i32 }
%"struct.std::ios_base::_Words" = type { i8*, i64 }
%"class.std::locale" = type { %"class.std::locale::_Impl"* }
%"class.std::locale::_Impl" = type { i32, %"class.std::locale::facet"**, i64, %"class.std::locale::facet"**, i8** }
%"class.std::locale::facet" = type <{ i32 (...)**, i32, [4 x i8] }>
%"class.std::basic_ostream" = type { i32 (...)**, %"class.std::basic_ios" }
%"class.std::basic_streambuf" = type { i32 (...)**, i8*, i8*, i8*, i8*, i8*, i8*, %"class.std::locale" }
%"class.std::ctype" = type <{ %"class.std::locale::facet.base", [4 x i8], %struct.__locale_struct*, i8, [7 x i8], i32*, i32*, i16*, i8, [256 x i8], [256 x i8], i8, [6 x i8] }>
%"class.std::locale::facet.base" = type <{ i32 (...)**, i32 }>
%struct.__locale_struct = type { [13 x %struct.__locale_data*], i16*, i32*, i32*, [13 x i8*] }
%struct.__locale_data = type opaque
%"class.std::num_put" = type { %"class.std::locale::facet.base", [4 x i8] }
%"class.std::num_get" = type { %"class.std::locale::facet.base", [4 x i8] }

@_ZStL8__ioinit = internal global %"class.std::ios_base::Init" zeroinitializer, align 1
@__dso_handle = external hidden global i8
@_ZSt3cin = external global %"class.std::basic_istream", align 8
@_ZSt4cout = external global %"class.std::basic_ostream", align 8
@.str = private unnamed_addr constant [2 x i8] c" \00", align 1
@llvm.global_ctors = appending global [1 x { i32, void ()*, i8* }] [{ i32, void ()*, i8* } { i32 65535, void ()* @_GLOBAL__sub_I_1657.cpp, i8* null }]

declare void @_ZNSt8ios_base4InitC1Ev(%"class.std::ios_base::Init"* nonnull align 1 dereferenceable(1)) unnamed_addr #0

; Function Attrs: nounwind
declare void @_ZNSt8ios_base4InitD1Ev(%"class.std::ios_base::Init"* nonnull align 1 dereferenceable(1)) unnamed_addr #1

; Function Attrs: nofree nounwind
declare i32 @__cxa_atexit(void (i8*)*, i8*, i8*) local_unnamed_addr #2

; Function Attrs: mustprogress nofree nounwind sspstrong uwtable
define dso_local i32 @_Z10checkprimei(i32 %0) local_unnamed_addr #3 {
  %2 = icmp eq i32 %0, 1
  %3 = and i32 %0, -2
  %4 = icmp ne i32 %3, 2
  %5 = and i1 %2, %4
  %6 = zext i1 %5 to i32
  %7 = icmp sgt i32 %0, 3
  br i1 %7, label %8, label %23

8:                                                ; preds = %1
  %9 = sitofp i32 %0 to double
  %10 = tail call double @sqrt(double %9) #9
  %11 = fcmp ult double %10, 2.000000e+00
  br i1 %11, label %23, label %12

12:                                               ; preds = %8, %12
  %13 = phi i32 [ %18, %12 ], [ %6, %8 ]
  %14 = phi i32 [ %19, %12 ], [ 2, %8 ]
  %15 = srem i32 %0, %14
  %16 = icmp eq i32 %15, 0
  %17 = zext i1 %16 to i32
  %18 = add nuw nsw i32 %13, %17
  %19 = add nuw nsw i32 %14, 1
  %20 = sitofp i32 %19 to double
  %21 = tail call double @sqrt(double %9) #9
  %22 = fcmp ult double %21, %20
  br i1 %22, label %23, label %12, !llvm.loop !5

23:                                               ; preds = %12, %8, %1
  %24 = phi i32 [ %6, %1 ], [ %6, %8 ], [ %18, %12 ]
  ret i32 %24
}

; Function Attrs: argmemonly mustprogress nofree nosync nounwind willreturn
declare void @llvm.lifetime.start.p0i8(i64 immarg, i8* nocapture) #4

; Function Attrs: argmemonly mustprogress nofree nosync nounwind willreturn
declare void @llvm.lifetime.end.p0i8(i64 immarg, i8* nocapture) #4

; Function Attrs: mustprogress norecurse sspstrong uwtable
define dso_local i32 @main() local_unnamed_addr #5 {
  %1 = alloca i32, align 4
  %2 = bitcast i32* %1 to i8*
  call void @llvm.lifetime.start.p0i8(i64 4, i8* nonnull %2) #9
  %3 = call nonnull align 8 dereferenceable(16) %"class.std::basic_istream"* @_ZNSirsERi(%"class.std::basic_istream"* nonnull align 8 dereferenceable(16) @_ZSt3cin, i32* nonnull align 4 dereferenceable(4) %1)
  %4 = load i32, i32* %1, align 4, !tbaa !7
  %5 = icmp slt i32 %4, 2
  br i1 %5, label %99, label %6

6:                                                ; preds = %0, %94
  %7 = phi i32 [ %95, %94 ], [ 1, %0 ]
  %8 = icmp eq i32 %7, 1
  %9 = and i32 %7, 2147483646
  %10 = icmp ne i32 %9, 2
  %11 = and i1 %8, %10
  %12 = zext i1 %11 to i32
  %13 = icmp ugt i32 %7, 3
  br i1 %13, label %14, label %29

14:                                               ; preds = %6
  %15 = sitofp i32 %7 to double
  %16 = call double @sqrt(double %15) #9
  %17 = fcmp ult double %16, 2.000000e+00
  br i1 %17, label %29, label %18

18:                                               ; preds = %14, %18
  %19 = phi i32 [ %24, %18 ], [ %12, %14 ]
  %20 = phi i32 [ %25, %18 ], [ 2, %14 ]
  %21 = urem i32 %7, %20
  %22 = icmp eq i32 %21, 0
  %23 = zext i1 %22 to i32
  %24 = add nuw nsw i32 %19, %23
  %25 = add nuw nsw i32 %20, 1
  %26 = sitofp i32 %25 to double
  %27 = call double @sqrt(double %15) #9
  %28 = fcmp ult double %27, %26
  br i1 %28, label %29, label %18, !llvm.loop !5

29:                                               ; preds = %18, %6, %14
  %30 = phi i32 [ %12, %6 ], [ %12, %14 ], [ %24, %18 ]
  %31 = icmp eq i32 %30, 0
  br i1 %31, label %32, label %94

32:                                               ; preds = %29
  %33 = load i32, i32* %1, align 4, !tbaa !7
  %34 = sub nsw i32 %33, %7
  %35 = icmp eq i32 %34, 1
  %36 = and i32 %34, -2
  %37 = icmp ne i32 %36, 2
  %38 = and i1 %35, %37
  %39 = zext i1 %38 to i32
  %40 = icmp sgt i32 %34, 3
  br i1 %40, label %41, label %56

41:                                               ; preds = %32
  %42 = sitofp i32 %34 to double
  %43 = call double @sqrt(double %42) #9
  %44 = fcmp ult double %43, 2.000000e+00
  br i1 %44, label %56, label %45

45:                                               ; preds = %41, %45
  %46 = phi i32 [ %51, %45 ], [ %39, %41 ]
  %47 = phi i32 [ %52, %45 ], [ 2, %41 ]
  %48 = srem i32 %34, %47
  %49 = icmp eq i32 %48, 0
  %50 = zext i1 %49 to i32
  %51 = add nuw nsw i32 %46, %50
  %52 = add nuw nsw i32 %47, 1
  %53 = sitofp i32 %52 to double
  %54 = call double @sqrt(double %42) #9
  %55 = fcmp ult double %54, %53
  br i1 %55, label %56, label %45, !llvm.loop !5

56:                                               ; preds = %45, %32, %41
  %57 = phi i32 [ %39, %32 ], [ %39, %41 ], [ %51, %45 ]
  %58 = icmp eq i32 %57, 0
  br i1 %58, label %59, label %94

59:                                               ; preds = %56
  %60 = call nonnull align 8 dereferenceable(8) %"class.std::basic_ostream"* @_ZNSolsEi(%"class.std::basic_ostream"* nonnull align 8 dereferenceable(8) @_ZSt4cout, i32 %7)
  %61 = call nonnull align 8 dereferenceable(8) %"class.std::basic_ostream"* @_ZSt16__ostream_insertIcSt11char_traitsIcEERSt13basic_ostreamIT_T0_ES6_PKS3_l(%"class.std::basic_ostream"* nonnull align 8 dereferenceable(8) %60, i8* nonnull getelementptr inbounds ([2 x i8], [2 x i8]* @.str, i64 0, i64 0), i64 1)
  %62 = load i32, i32* %1, align 4, !tbaa !7
  %63 = sub nsw i32 %62, %7
  %64 = call nonnull align 8 dereferenceable(8) %"class.std::basic_ostream"* @_ZNSolsEi(%"class.std::basic_ostream"* nonnull align 8 dereferenceable(8) %60, i32 %63)
  %65 = bitcast %"class.std::basic_ostream"* %64 to i8**
  %66 = load i8*, i8** %65, align 8, !tbaa !11
  %67 = getelementptr i8, i8* %66, i64 -24
  %68 = bitcast i8* %67 to i64*
  %69 = load i64, i64* %68, align 8
  %70 = bitcast %"class.std::basic_ostream"* %64 to i8*
  %71 = add nsw i64 %69, 240
  %72 = getelementptr inbounds i8, i8* %70, i64 %71
  %73 = bitcast i8* %72 to %"class.std::ctype"**
  %74 = load %"class.std::ctype"*, %"class.std::ctype"** %73, align 8, !tbaa !13
  %75 = icmp eq %"class.std::ctype"* %74, null
  br i1 %75, label %76, label %77

76:                                               ; preds = %59
  call void @_ZSt16__throw_bad_castv() #10
  unreachable

77:                                               ; preds = %59
  %78 = getelementptr inbounds %"class.std::ctype", %"class.std::ctype"* %74, i64 0, i32 8
  %79 = load i8, i8* %78, align 8, !tbaa !17
  %80 = icmp eq i8 %79, 0
  br i1 %80, label %84, label %81

81:                                               ; preds = %77
  %82 = getelementptr inbounds %"class.std::ctype", %"class.std::ctype"* %74, i64 0, i32 9, i64 10
  %83 = load i8, i8* %82, align 1, !tbaa !19
  br label %90

84:                                               ; preds = %77
  call void @_ZNKSt5ctypeIcE13_M_widen_initEv(%"class.std::ctype"* nonnull align 8 dereferenceable(570) %74)
  %85 = bitcast %"class.std::ctype"* %74 to i8 (%"class.std::ctype"*, i8)***
  %86 = load i8 (%"class.std::ctype"*, i8)**, i8 (%"class.std::ctype"*, i8)*** %85, align 8, !tbaa !11
  %87 = getelementptr inbounds i8 (%"class.std::ctype"*, i8)*, i8 (%"class.std::ctype"*, i8)** %86, i64 6
  %88 = load i8 (%"class.std::ctype"*, i8)*, i8 (%"class.std::ctype"*, i8)** %87, align 8
  %89 = call signext i8 %88(%"class.std::ctype"* nonnull align 8 dereferenceable(570) %74, i8 signext 10)
  br label %90

90:                                               ; preds = %81, %84
  %91 = phi i8 [ %83, %81 ], [ %89, %84 ]
  %92 = call nonnull align 8 dereferenceable(8) %"class.std::basic_ostream"* @_ZNSo3putEc(%"class.std::basic_ostream"* nonnull align 8 dereferenceable(8) %64, i8 signext %91)
  %93 = call nonnull align 8 dereferenceable(8) %"class.std::basic_ostream"* @_ZNSo5flushEv(%"class.std::basic_ostream"* nonnull align 8 dereferenceable(8) %92)
  br label %94

94:                                               ; preds = %29, %56, %90
  %95 = add nuw nsw i32 %7, 1
  %96 = load i32, i32* %1, align 4, !tbaa !7
  %97 = sdiv i32 %96, 2
  %98 = icmp slt i32 %7, %97
  br i1 %98, label %6, label %99, !llvm.loop !20

99:                                               ; preds = %94, %0
  call void @llvm.lifetime.end.p0i8(i64 4, i8* nonnull %2) #9
  ret i32 0
}

declare nonnull align 8 dereferenceable(16) %"class.std::basic_istream"* @_ZNSirsERi(%"class.std::basic_istream"* nonnull align 8 dereferenceable(16), i32* nonnull align 4 dereferenceable(4)) local_unnamed_addr #0

declare nonnull align 8 dereferenceable(8) %"class.std::basic_ostream"* @_ZNSolsEi(%"class.std::basic_ostream"* nonnull align 8 dereferenceable(8), i32) local_unnamed_addr #0

; Function Attrs: mustprogress nofree nounwind willreturn
declare double @sqrt(double) local_unnamed_addr #6

declare nonnull align 8 dereferenceable(8) %"class.std::basic_ostream"* @_ZSt16__ostream_insertIcSt11char_traitsIcEERSt13basic_ostreamIT_T0_ES6_PKS3_l(%"class.std::basic_ostream"* nonnull align 8 dereferenceable(8), i8*, i64) local_unnamed_addr #0

declare nonnull align 8 dereferenceable(8) %"class.std::basic_ostream"* @_ZNSo3putEc(%"class.std::basic_ostream"* nonnull align 8 dereferenceable(8), i8 signext) local_unnamed_addr #0

declare nonnull align 8 dereferenceable(8) %"class.std::basic_ostream"* @_ZNSo5flushEv(%"class.std::basic_ostream"* nonnull align 8 dereferenceable(8)) local_unnamed_addr #0

; Function Attrs: noreturn
declare void @_ZSt16__throw_bad_castv() local_unnamed_addr #7

declare void @_ZNKSt5ctypeIcE13_M_widen_initEv(%"class.std::ctype"* nonnull align 8 dereferenceable(570)) local_unnamed_addr #0

; Function Attrs: sspstrong uwtable
define internal void @_GLOBAL__sub_I_1657.cpp() #8 section ".text.startup" {
  tail call void @_ZNSt8ios_base4InitC1Ev(%"class.std::ios_base::Init"* nonnull align 1 dereferenceable(1) @_ZStL8__ioinit)
  %1 = tail call i32 @__cxa_atexit(void (i8*)* bitcast (void (%"class.std::ios_base::Init"*)* @_ZNSt8ios_base4InitD1Ev to void (i8*)*), i8* getelementptr inbounds (%"class.std::ios_base::Init", %"class.std::ios_base::Init"* @_ZStL8__ioinit, i64 0, i32 0), i8* nonnull @__dso_handle) #9
  ret void
}


!llvm.module.flags = !{!0, !1, !2, !3}
!llvm.ident = !{!4}

!0 = !{i32 1, !"wchar_size", i32 4}
!1 = !{i32 7, !"PIC Level", i32 2}
!2 = !{i32 7, !"PIE Level", i32 2}
!3 = !{i32 7, !"uwtable", i32 1}
!4 = !{!"clang version 13.0.0"}
!5 = distinct !{!5, !6}
!6 = !{!"llvm.loop.mustprogress"}
!7 = !{!8, !8, i64 0}
!8 = !{!"int", !9, i64 0}
!9 = !{!"omnipotent char", !10, i64 0}
!10 = !{!"Simple C++ TBAA"}
!11 = !{!12, !12, i64 0}
!12 = !{!"vtable pointer", !10, i64 0}
!13 = !{!14, !15, i64 240}
!14 = !{!"_ZTSSt9basic_iosIcSt11char_traitsIcEE", !15, i64 216, !9, i64 224, !16, i64 225, !15, i64 232, !15, i64 240, !15, i64 248, !15, i64 256}
!15 = !{!"any pointer", !9, i64 0}
!16 = !{!"bool", !9, i64 0}
!17 = !{!18, !9, i64 56}
!18 = !{!"_ZTSSt5ctypeIcE", !15, i64 16, !16, i64 24, !15, i64 32, !15, i64 40, !15, i64 48, !9, i64 56, !9, i64 57, !9, i64 313, !9, i64 569}
!19 = !{!9, !9, i64 0}
!20 = distinct !{!20, !6}
